target datalayout = "e-m:e-p270:32:32-p271:32:32-p272:64:64-i64:64-i128:128-f80:128-n8:16:32:64-S128"
target triple = "x86_64-pc-linux-gnu"

%struct.t_pargs = type { ptr, i8, i32, %union.anon, ptr }
%union.anon = type { ptr }
%struct.t_filenm = type { i32, ptr, ptr, i64, %"class.std::vector" }
%"class.std::vector" = type { %"struct.std::_Vector_base" }
%"struct.std::_Vector_base" = type { %"struct.std::_Vector_base<std::__cxx11::basic_string<char>, std::allocator<std::__cxx11::basic_string<char>>>::_Vector_impl" }
%"struct.std::_Vector_base<std::__cxx11::basic_string<char>, std::allocator<std::__cxx11::basic_string<char>>>::_Vector_impl" = type { %"struct.std::_Vector_base<std::__cxx11::basic_string<char>, std::allocator<std::__cxx11::basic_string<char>>>::_Vector_impl_data" }
%"struct.std::_Vector_base<std::__cxx11::basic_string<char>, std::allocator<std::__cxx11::basic_string<char>>>::_Vector_impl_data" = type { ptr, ptr, ptr }

@__const._Z8gmx_saxsiPPc.desc = private unnamed_addr constant [3 x ptr] [ptr @.str, ptr @.str.1, ptr @.str.2], align 16
@_ZZ8gmx_saxsiPPcE7start_q = internal global float 0.000000e+00, align 4
@_ZZ8gmx_saxsiPPcE5end_q = internal global float 6.000000e+01, align 4
@_ZZ8gmx_saxsiPPcE6energy = internal global float 1.200000e+01, align 4
@_ZZ8gmx_saxsiPPcE7ngroups = internal global i32 1, align 4
@.str.11 = private unnamed_addr constant [3 x i8] c"-f\00", align 1
@.str.12 = private unnamed_addr constant [3 x i8] c"-d\00", align 1
@.str.13 = private unnamed_addr constant [8 x i8] c"sfactor\00", align 1
@.str.14 = private unnamed_addr constant [4 x i8] c"-sq\00", align 1
@.str.15 = private unnamed_addr constant [3 x i8] c"sq\00", align 1
@stdout = external global ptr, align 8
@.str.16 = private unnamed_addr constant [90 x i8] c"You are going to use a deprecated gmx tool. Please migrate to the new one, gmx scattering\00", align 1
@.str.17 = private unnamed_addr constant [12 x i8] c"Cromer1968a\00", align 1

; Function Attrs: mustprogress nounwind uwtable
define linkonce_odr void @_ZNSt15__new_allocatorINSt7__cxx1112basic_stringIcSt11char_traitsIcESaIcEEEEC2Ev(ptr noundef nonnull align 1 dereferenceable(1) %0) unnamed_addr #3 comdat align 2 {
  %2 = alloca ptr, align 8
  store ptr %0, ptr %2, align 8
  ret void
}

; Function Attrs: mustprogress nounwind uwtable
define linkonce_odr void @_ZNSt12_Vector_baseINSt7__cxx1112basic_stringIcSt11char_traitsIcESaIcEEESaIS5_EE17_Vector_impl_dataC2Ev(ptr noundef nonnull align 8 dereferenceable(24) %0) unnamed_addr #3 comdat align 2 {
  %2 = alloca ptr, align 8
  store ptr %0, ptr %2, align 8
  %3 = load ptr, ptr %2, align 8
  %4 = getelementptr inbounds %"struct.std::_Vector_base<std::__cxx11::basic_string<char>, std::allocator<std::__cxx11::basic_string<char>>>::_Vector_impl_data", ptr %3, i32 0, i32 0
  store ptr null, ptr %4, align 8
  %5 = getelementptr inbounds %"struct.std::_Vector_base<std::__cxx11::basic_string<char>, std::allocator<std::__cxx11::basic_string<char>>>::_Vector_impl_data", ptr %3, i32 0, i32 1
  store ptr null, ptr %5, align 8
  %6 = getelementptr inbounds %"struct.std::_Vector_base<std::__cxx11::basic_string<char>, std::allocator<std::__cxx11::basic_string<char>>>::_Vector_impl_data", ptr %3, i32 0, i32 2
  store ptr null, ptr %6, align 8
  ret void
}

; Function Attrs: mustprogress nounwind uwtable
define linkonce_odr void @_ZNSaINSt7__cxx1112basic_stringIcSt11char_traitsIcESaIcEEEEC2Ev(ptr noundef nonnull align 1 dereferenceable(1) %0) unnamed_addr #3 comdat align 2 {
  %2 = alloca ptr, align 8
  store ptr %0, ptr %2, align 8
  %3 = load ptr, ptr %2, align 8
  call void @_ZNSt15__new_allocatorINSt7__cxx1112basic_stringIcSt11char_traitsIcESaIcEEEEC2Ev(ptr noundef nonnull align 1 dereferenceable(1) %3) #8
  ret void
}

; Function Attrs: mustprogress nounwind uwtable
define linkonce_odr void @_ZNSt12_Vector_baseINSt7__cxx1112basic_stringIcSt11char_traitsIcESaIcEEESaIS5_EE12_Vector_implC2Ev(ptr noundef nonnull align 8 dereferenceable(24) %0) unnamed_addr #3 comdat align 2 {
  %2 = alloca ptr, align 8
  store ptr %0, ptr %2, align 8
  %3 = load ptr, ptr %2, align 8
  call void @_ZNSaINSt7__cxx1112basic_stringIcSt11char_traitsIcESaIcEEEEC2Ev(ptr noundef nonnull align 1 dereferenceable(1) %3) #8
  call void @_ZNSt12_Vector_baseINSt7__cxx1112basic_stringIcSt11char_traitsIcESaIcEEESaIS5_EE17_Vector_impl_dataC2Ev(ptr noundef nonnull align 8 dereferenceable(24) %3) #8
  ret void
}

; Function Attrs: mustprogress nounwind uwtable
define linkonce_odr void @_ZNSt12_Vector_baseINSt7__cxx1112basic_stringIcSt11char_traitsIcESaIcEEESaIS5_EEC2Ev(ptr noundef nonnull align 8 dereferenceable(24) %0) unnamed_addr #3 comdat align 2 {
  %2 = alloca ptr, align 8
  store ptr %0, ptr %2, align 8
  %3 = load ptr, ptr %2, align 8
  %4 = getelementptr inbounds %"struct.std::_Vector_base", ptr %3, i32 0, i32 0
  call void @_ZNSt12_Vector_baseINSt7__cxx1112basic_stringIcSt11char_traitsIcESaIcEEESaIS5_EE12_Vector_implC2Ev(ptr noundef nonnull align 8 dereferenceable(24) %4) #8
  ret void
}

; Function Attrs: mustprogress nounwind uwtable
define linkonce_odr noundef i32 @_Z5asizeIPKcLi3EEiRAT0__T_(ptr noundef nonnull align 8 dereferenceable(24) %0) #3 comdat {
  %2 = alloca ptr, align 8
  store ptr %0, ptr %2, align 8
  ret i32 3
}

; Function Attrs: mustprogress nounwind uwtable
define linkonce_odr noundef i32 @_Z5asizeI7t_pargsLi4EEiRAT0__T_(ptr noundef nonnull align 8 dereferenceable(128) %0) #3 comdat {
  %2 = alloca ptr, align 8
  store ptr %0, ptr %2, align 8
  ret i32 4
}

; Function Attrs: mustprogress nounwind uwtable
define linkonce_odr noundef i32 @_Z5asizeI8t_filenmLi5EEiRAT0__T_(ptr noundef nonnull align 8 dereferenceable(280) %0) #3 comdat {
  %2 = alloca ptr, align 8
  store ptr %0, ptr %2, align 8
  ret i32 5
}

; Function Attrs: mustprogress nounwind uwtable
define linkonce_odr void @_ZNSt6vectorINSt7__cxx1112basic_stringIcSt11char_traitsIcESaIcEEESaIS5_EEC2Ev(ptr noundef nonnull align 8 dereferenceable(24) %0) unnamed_addr #3 comdat align 2 {
  %2 = alloca ptr, align 8
  store ptr %0, ptr %2, align 8
  %3 = load ptr, ptr %2, align 8
  call void @_ZNSt12_Vector_baseINSt7__cxx1112basic_stringIcSt11char_traitsIcESaIcEEESaIS5_EEC2Ev(ptr noundef nonnull align 8 dereferenceable(24) %3) #8
  ret void
}

; Function Attrs: mustprogress uwtable
define noundef i32 @_Z8gmx_saxsiPPc(i32 noundef %0, ptr noundef %1) #0 personality ptr @__gxx_personality_v0 {
  %3 = alloca i32, align 4
  %4 = alloca i32, align 4
  %5 = alloca ptr, align 8
  %6 = alloca [3 x ptr], align 16
  %7 = alloca [4 x %struct.t_pargs], align 16
  %8 = alloca ptr, align 8
  %9 = alloca ptr, align 8
  %10 = alloca ptr, align 8
  %11 = alloca ptr, align 8
  %12 = alloca ptr, align 8
  %13 = alloca [5 x %struct.t_filenm], align 16
  %14 = alloca ptr, align 8
  %15 = alloca ptr, align 8
  %16 = alloca i32, align 4
  %17 = alloca i32, align 4
  store i32 %0, ptr %4, align 4
  store ptr %1, ptr %5, align 8
  call void @llvm.memcpy.p0.p0.i64(ptr align 16 %6, ptr align 16 @__const._Z8gmx_saxsiPPc.desc, i64 24, i1 false)
  call void @llvm.memcpy.p0.p0.i64(ptr align 16 %7, ptr align 16 @__const._Z8gmx_saxsiPPc.pa, i64 128, i1 false)
  store ptr null, ptr %11, align 8
  %18 = getelementptr inbounds [5 x %struct.t_filenm], ptr %13, i64 0, i64 0
  store ptr %18, ptr %14, align 8
  %19 = getelementptr inbounds %struct.t_filenm, ptr %18, i32 0, i32 0
  store i32 1, ptr %19, align 8
  %20 = getelementptr inbounds %struct.t_filenm, ptr %18, i32 0, i32 1
  store ptr @.str.11, ptr %20, align 8
  %21 = getelementptr inbounds %struct.t_filenm, ptr %18, i32 0, i32 2
  store ptr null, ptr %21, align 8
  %22 = getelementptr inbounds %struct.t_filenm, ptr %18, i32 0, i32 3
  store i64 2, ptr %22, align 8
  %23 = getelementptr inbounds %struct.t_filenm, ptr %18, i32 0, i32 4
  call void @llvm.memset.p0.i64(ptr align 8 %23, i8 0, i64 24, i1 false)
  call void @_ZNSt6vectorINSt7__cxx1112basic_stringIcSt11char_traitsIcESaIcEEESaIS5_EEC2Ev(ptr noundef nonnull align 8 dereferenceable(24) %23) #8
  %24 = getelementptr inbounds %struct.t_filenm, ptr %18, i64 1
  store ptr %24, ptr %14, align 8
  %25 = getelementptr inbounds %struct.t_filenm, ptr %24, i32 0, i32 0
  store i32 25, ptr %25, align 8
  %26 = getelementptr inbounds %struct.t_filenm, ptr %24, i32 0, i32 1
  store ptr null, ptr %26, align 8
  %27 = getelementptr inbounds %struct.t_filenm, ptr %24, i32 0, i32 2
  store ptr null, ptr %27, align 8
  %28 = getelementptr inbounds %struct.t_filenm, ptr %24, i32 0, i32 3
  store i64 2, ptr %28, align 8
  %29 = getelementptr inbounds %struct.t_filenm, ptr %24, i32 0, i32 4
  call void @llvm.memset.p0.i64(ptr align 8 %29, i8 0, i64 24, i1 false)
  call void @_ZNSt6vectorINSt7__cxx1112basic_stringIcSt11char_traitsIcESaIcEEESaIS5_EEC2Ev(ptr noundef nonnull align 8 dereferenceable(24) %29) #8
  %30 = getelementptr inbounds %struct.t_filenm, ptr %24, i64 1
  store ptr %30, ptr %14, align 8
  %31 = getelementptr inbounds %struct.t_filenm, ptr %30, i32 0, i32 0
  store i32 22, ptr %31, align 8
  %32 = getelementptr inbounds %struct.t_filenm, ptr %30, i32 0, i32 1
  store ptr null, ptr %32, align 8
  %33 = getelementptr inbounds %struct.t_filenm, ptr %30, i32 0, i32 2
  store ptr null, ptr %33, align 8
  %34 = getelementptr inbounds %struct.t_filenm, ptr %30, i32 0, i32 3
  store i64 10, ptr %34, align 8
  %35 = getelementptr inbounds %struct.t_filenm, ptr %30, i32 0, i32 4
  call void @llvm.memset.p0.i64(ptr align 8 %35, i8 0, i64 24, i1 false)
  call void @_ZNSt6vectorINSt7__cxx1112basic_stringIcSt11char_traitsIcESaIcEEESaIS5_EEC2Ev(ptr noundef nonnull align 8 dereferenceable(24) %35) #8
  %36 = getelementptr inbounds %struct.t_filenm, ptr %30, i64 1
  store ptr %36, ptr %14, align 8
  %37 = getelementptr inbounds %struct.t_filenm, ptr %36, i32 0, i32 0
  store i32 31, ptr %37, align 8
  %38 = getelementptr inbounds %struct.t_filenm, ptr %36, i32 0, i32 1
  store ptr @.str.12, ptr %38, align 8
  %39 = getelementptr inbounds %struct.t_filenm, ptr %36, i32 0, i32 2
  store ptr @.str.13, ptr %39, align 8
  %40 = getelementptr inbounds %struct.t_filenm, ptr %36, i32 0, i32 3
  store i64 10, ptr %40, align 8
  %41 = getelementptr inbounds %struct.t_filenm, ptr %36, i32 0, i32 4
  call void @llvm.memset.p0.i64(ptr align 8 %41, i8 0, i64 24, i1 false)
  call void @_ZNSt6vectorINSt7__cxx1112basic_stringIcSt11char_traitsIcESaIcEEESaIS5_EEC2Ev(ptr noundef nonnull align 8 dereferenceable(24) %41) #8
  %42 = getelementptr inbounds %struct.t_filenm, ptr %36, i64 1
  store ptr %42, ptr %14, align 8
  %43 = getelementptr inbounds %struct.t_filenm, ptr %42, i32 0, i32 0
  store i32 20, ptr %43, align 8
  %44 = getelementptr inbounds %struct.t_filenm, ptr %42, i32 0, i32 1
  store ptr @.str.14, ptr %44, align 8
  %45 = getelementptr inbounds %struct.t_filenm, ptr %42, i32 0, i32 2
  store ptr @.str.15, ptr %45, align 8
  %46 = getelementptr inbounds %struct.t_filenm, ptr %42, i32 0, i32 3
  store i64 4, ptr %46, align 8
  %47 = getelementptr inbounds %struct.t_filenm, ptr %42, i32 0, i32 4
  call void @llvm.memset.p0.i64(ptr align 8 %47, i8 0, i64 24, i1 false)
  call void @_ZNSt6vectorINSt7__cxx1112basic_stringIcSt11char_traitsIcESaIcEEESaIS5_EEC2Ev(ptr noundef nonnull align 8 dereferenceable(24) %47) #8
  %48 = load ptr, ptr %5, align 8
  %49 = invoke noundef i32 @_Z5asizeI8t_filenmLi5EEiRAT0__T_(ptr noundef nonnull align 8 dereferenceable(280) %13)
          to label %50 unwind label %61

50:                                               ; preds = %2
  %51 = getelementptr inbounds [5 x %struct.t_filenm], ptr %13, i64 0, i64 0
  %52 = invoke noundef i32 @_Z5asizeI7t_pargsLi4EEiRAT0__T_(ptr noundef nonnull align 8 dereferenceable(128) %7)
          to label %53 unwind label %61

53:                                               ; preds = %50
  %54 = getelementptr inbounds [4 x %struct.t_pargs], ptr %7, i64 0, i64 0
  %55 = invoke noundef i32 @_Z5asizeIPKcLi3EEiRAT0__T_(ptr noundef nonnull align 8 dereferenceable(24) %6)
          to label %56 unwind label %61

56:                                               ; preds = %53
  %57 = getelementptr inbounds [3 x ptr], ptr %6, i64 0, i64 0
  %58 = invoke noundef zeroext i1 @_Z17parse_common_argsPiPPcmiP8t_filenmiP7t_pargsiPPKciS8_PP16gmx_output_env_t(ptr noundef %4, ptr noundef %48, i64 noundef 16576, i32 noundef %49, ptr noundef %51, i32 noundef %52, ptr noundef %54, i32 noundef %55, ptr noundef %57, i32 noundef 0, ptr noundef null, ptr noundef %12)
          to label %59 unwind label %61

59:                                               ; preds = %56
  br i1 %58, label %67, label %60

60:                                               ; preds = %59
  store i32 0, ptr %3, align 4
  store i32 1, ptr %17, align 4
  br label %108

61:                                               ; preds = %105, %96, %93, %89, %86, %84, %81, %79, %76, %74, %71, %67, %56, %53, %50, %2
  %62 = landingpad { ptr, i32 }
          cleanup
  %63 = extractvalue { ptr, i32 } %62, 0
  store ptr %63, ptr %15, align 8
  %64 = extractvalue { ptr, i32 } %62, 1
  store i32 %64, ptr %16, align 4
  %65 = getelementptr inbounds [5 x %struct.t_filenm], ptr %13, i32 0, i32 0
  %66 = getelementptr inbounds %struct.t_filenm, ptr %65, i64 5
  br label %117

67:                                               ; preds = %59
  %68 = load ptr, ptr @stdout, align 8
  %69 = call i32 (ptr, ptr, ...) @fprintf(ptr noundef %68, ptr noundef @.str.16) #8
  %70 = invoke noundef i32 @_Z5asizeI8t_filenmLi5EEiRAT0__T_(ptr noundef nonnull align 8 dereferenceable(280) %13)
          to label %71 unwind label %61

71:                                               ; preds = %67
  %72 = getelementptr inbounds [5 x %struct.t_filenm], ptr %13, i64 0, i64 0
  %73 = invoke noundef ptr @_Z6ftp2fniiPK8t_filenm(i32 noundef 25, i32 noundef %70, ptr noundef %72)
          to label %74 unwind label %61

74:                                               ; preds = %71
  store ptr %73, ptr %8, align 8
  %75 = invoke noundef i32 @_Z5asizeI8t_filenmLi5EEiRAT0__T_(ptr noundef nonnull align 8 dereferenceable(280) %13)
          to label %76 unwind label %61

76:                                               ; preds = %74
  %77 = getelementptr inbounds [5 x %struct.t_filenm], ptr %13, i64 0, i64 0
  %78 = invoke noundef ptr @_Z6ftp2fniiPK8t_filenm(i32 noundef 1, i32 noundef %75, ptr noundef %77)
          to label %79 unwind label %61

79:                                               ; preds = %76
  store ptr %78, ptr %9, align 8
  %80 = invoke noundef i32 @_Z5asizeI8t_filenmLi5EEiRAT0__T_(ptr noundef nonnull align 8 dereferenceable(280) %13)
          to label %81 unwind label %61

81:                                               ; preds = %79
  %82 = getelementptr inbounds [5 x %struct.t_filenm], ptr %13, i64 0, i64 0
  %83 = invoke noundef ptr @_Z6ftp2fniiPK8t_filenm(i32 noundef 31, i32 noundef %80, ptr noundef %82)
          to label %84 unwind label %61

84:                                               ; preds = %81
  store ptr %83, ptr %11, align 8
  %85 = invoke noundef i32 @_Z5asizeI8t_filenmLi5EEiRAT0__T_(ptr noundef nonnull align 8 dereferenceable(280) %13)
          to label %86 unwind label %61

86:                                               ; preds = %84
  %87 = getelementptr inbounds [5 x %struct.t_filenm], ptr %13, i64 0, i64 0
  %88 = invoke noundef ptr @_Z11ftp2fn_nulliiPK8t_filenm(i32 noundef 22, i32 noundef %85, ptr noundef %87)
          to label %89 unwind label %61

89:                                               ; preds = %86
  store ptr %88, ptr %10, align 8
  %90 = load ptr, ptr %8, align 8
  %91 = load ptr, ptr %10, align 8
  %92 = invoke noundef i32 @_Z5asizeI8t_filenmLi5EEiRAT0__T_(ptr noundef nonnull align 8 dereferenceable(280) %13)
          to label %93 unwind label %61

93:                                               ; preds = %89
  %94 = getelementptr inbounds [5 x %struct.t_filenm], ptr %13, i64 0, i64 0
  %95 = invoke noundef ptr @_Z6opt2fnPKciPK8t_filenm(ptr noundef @.str.14, i32 noundef %92, ptr noundef %94)
          to label %96 unwind label %61

96:                                               ; preds = %93
  %97 = load ptr, ptr %9, align 8
  %98 = load ptr, ptr %11, align 8
  %99 = load float, ptr @_ZZ8gmx_saxsiPPcE7start_q, align 4
  %100 = load float, ptr @_ZZ8gmx_saxsiPPcE5end_q, align 4
  %101 = load float, ptr @_ZZ8gmx_saxsiPPcE6energy, align 4
  %102 = load i32, ptr @_ZZ8gmx_saxsiPPcE7ngroups, align 4
  %103 = load ptr, ptr %12, align 8
  %104 = invoke noundef i32 @_Z23do_scattering_intensityPKcS0_S0_S0_S0_fffiPK16gmx_output_env_t(ptr noundef %90, ptr noundef %91, ptr noundef %95, ptr noundef %97, ptr noundef %98, float noundef %99, float noundef %100, float noundef %101, i32 noundef %102, ptr noundef %103)
          to label %105 unwind label %61

105:                                              ; preds = %96
  %106 = load ptr, ptr @stdout, align 8
  invoke void @_Z11please_citeP8_IO_FILEPKc(ptr noundef %106, ptr noundef @.str.17)
          to label %107 unwind label %61

107:                                              ; preds = %105
  store i32 0, ptr %3, align 4
  store i32 1, ptr %17, align 4
  br label %108

108:                                              ; preds = %107, %60
  %109 = getelementptr inbounds [5 x %struct.t_filenm], ptr %13, i32 0, i32 0
  %110 = getelementptr inbounds %struct.t_filenm, ptr %109, i64 5
  br label %111

111:                                              ; preds = %111, %108
  %112 = phi ptr [ %110, %108 ], [ %113, %111 ]
  %113 = getelementptr inbounds %struct.t_filenm, ptr %112, i64 -1
  call void @_ZN8t_filenmD2Ev(ptr noundef nonnull align 8 dereferenceable(56) %113) #8
  %114 = icmp eq ptr %113, %109
  br i1 %114, label %115, label %111

115:                                              ; preds = %111
  %116 = load i32, ptr %3, align 4
  ret i32 %116

117:                                              ; preds = %117, %61
  %118 = phi ptr [ %66, %61 ], [ %119, %117 ]
  %119 = getelementptr inbounds %struct.t_filenm, ptr %118, i64 -1
  call void @_ZN8t_filenmD2Ev(ptr noundef nonnull align 8 dereferenceable(56) %119) #8
  %120 = icmp eq ptr %119, %65
  br i1 %120, label %121, label %117

121:                                              ; preds = %117
  br label %122

122:                                              ; preds = %121
  %123 = load ptr, ptr %15, align 8
  %124 = load i32, ptr %16, align 4
  %125 = insertvalue { ptr, i32 } poison, ptr %123, 0
  %126 = insertvalue { ptr, i32 } %125, i32 %124, 1
  resume { ptr, i32 } %126
}