; Function Attrs: mustprogress uwtable
define noundef i32 @_Z8gmx_saxsiPPc(i32 noundef %0, ptr noundef %1) local_unnamed_addr #0 personality ptr @__gxx_personality_v0 {
  %3 = alloca i32, align 4
  %4 = alloca [3 x ptr], align 16
  %5 = alloca [4 x %struct.t_pargs], align 16
  %6 = alloca ptr, align 8
  %7 = alloca [5 x %struct.t_filenm], align 16
  store i32 %0, ptr %3, align 4
  call void @llvm.memcpy.p0.p0.i64(ptr noundef nonnull align 16 dereferenceable(24) %4, ptr noundef nonnull align 16 dereferenceable(24) @__const._Z8gmx_saxsiPPc.desc, i64 24, i1 false)
  call void @llvm.memcpy.p0.p0.i64(ptr noundef nonnull align 16 dereferenceable(128) %5, ptr noundef nonnull align 16 dereferenceable(128) @__const._Z8gmx_saxsiPPc.pa, i64 128, i1 false)
  store i32 1, ptr %7, align 16
  %8 = getelementptr inbounds i8, ptr %7, i64 8
  store ptr @.str.11, ptr %8, align 8
  %9 = getelementptr inbounds i8, ptr %7, i64 16
  store ptr null, ptr %9, align 16
  %10 = getelementptr inbounds i8, ptr %7, i64 24
  store i64 2, ptr %10, align 8
  %11 = getelementptr inbounds i8, ptr %7, i64 32
  %12 = getelementptr inbounds i8, ptr %7, i64 56
  call void @llvm.memset.p0.i64(ptr noundef nonnull align 16 dereferenceable(24) %11, i8 0, i64 24, i1 false)
  store i32 25, ptr %12, align 8
  %13 = getelementptr inbounds i8, ptr %7, i64 64
  %14 = getelementptr inbounds i8, ptr %7, i64 80
  call void @llvm.memset.p0.i64(ptr noundef nonnull align 16 dereferenceable(16) %13, i8 0, i64 16, i1 false)
  store i64 2, ptr %14, align 16
  %15 = getelementptr inbounds i8, ptr %7, i64 88
  %16 = getelementptr inbounds i8, ptr %7, i64 112
  call void @llvm.memset.p0.i64(ptr noundef nonnull align 8 dereferenceable(24) %15, i8 0, i64 24, i1 false)
  store i32 22, ptr %16, align 16
  %17 = getelementptr inbounds i8, ptr %7, i64 120
  %18 = getelementptr inbounds i8, ptr %7, i64 136
  call void @llvm.memset.p0.i64(ptr noundef nonnull align 8 dereferenceable(16) %17, i8 0, i64 16, i1 false)
  store i64 10, ptr %18, align 8
  %19 = getelementptr inbounds i8, ptr %7, i64 144
  %20 = getelementptr inbounds i8, ptr %7, i64 168
  call void @llvm.memset.p0.i64(ptr noundef nonnull align 16 dereferenceable(24) %19, i8 0, i64 24, i1 false)
  store i32 31, ptr %20, align 8
  %21 = getelementptr inbounds i8, ptr %7, i64 176
  store ptr @.str.12, ptr %21, align 16
  %22 = getelementptr inbounds i8, ptr %7, i64 184
  store ptr @.str.13, ptr %22, align 8
  %23 = getelementptr inbounds i8, ptr %7, i64 192
  store i64 10, ptr %23, align 16
  %24 = getelementptr inbounds i8, ptr %7, i64 200
  %25 = getelementptr inbounds i8, ptr %7, i64 224
  call void @llvm.memset.p0.i64(ptr noundef nonnull align 8 dereferenceable(24) %24, i8 0, i64 24, i1 false)
  store i32 20, ptr %25, align 16
  %26 = getelementptr inbounds i8, ptr %7, i64 232
  store ptr @.str.14, ptr %26, align 8
  %27 = getelementptr inbounds i8, ptr %7, i64 240
  store ptr @.str.15, ptr %27, align 16
  %28 = getelementptr inbounds i8, ptr %7, i64 248
  store i64 4, ptr %28, align 8
  %29 = getelementptr inbounds i8, ptr %7, i64 256
  call void @llvm.memset.p0.i64(ptr noundef nonnull align 16 dereferenceable(24) %29, i8 0, i64 24, i1 false)
  %30 = invoke noundef zeroext i1 @_Z17parse_common_argsPiPPcmiP8t_filenmiP7t_pargsiPPKciS8_PP16gmx_output_env_t(ptr noundef nonnull %3, ptr noundef %1, i64 noundef 16576, i32 noundef 5, ptr noundef nonnull %7, i32 noundef 4, ptr noundef nonnull %5, i32 noundef 3, ptr noundef nonnull %4, i32 noundef 0, ptr noundef null, ptr noundef nonnull %6)
          to label %31 unwind label %32

31:                                               ; preds = %2
  br i1 %30, label %35, label %56

32:                                               ; preds = %54, %47, %45, %43, %41, %39, %35, %2
  %33 = landingpad { ptr, i32 }
          cleanup
  %34 = getelementptr inbounds i8, ptr %7, i64 280
  br label %70

35:                                               ; preds = %31
  %36 = load ptr, ptr @stdout, align 8
  %37 = call i64 @fwrite(ptr nonnull @.str.16, i64 89, i64 1, ptr %36)
  %38 = invoke noundef ptr @_Z6ftp2fniiPK8t_filenm(i32 noundef 25, i32 noundef 5, ptr noundef nonnull %7)
          to label %39 unwind label %32

39:                                               ; preds = %35
  %40 = invoke noundef ptr @_Z6ftp2fniiPK8t_filenm(i32 noundef 1, i32 noundef 5, ptr noundef nonnull %7)
          to label %41 unwind label %32

41:                                               ; preds = %39
  %42 = invoke noundef ptr @_Z6ftp2fniiPK8t_filenm(i32 noundef 31, i32 noundef 5, ptr noundef nonnull %7)
          to label %43 unwind label %32

43:                                               ; preds = %41
  %44 = invoke noundef ptr @_Z11ftp2fn_nulliiPK8t_filenm(i32 noundef 22, i32 noundef 5, ptr noundef nonnull %7)
          to label %45 unwind label %32

45:                                               ; preds = %43
  %46 = invoke noundef ptr @_Z6opt2fnPKciPK8t_filenm(ptr noundef nonnull @.str.14, i32 noundef 5, ptr noundef nonnull %7)
          to label %47 unwind label %32

47:                                               ; preds = %45
  %48 = load float, ptr @_ZZ8gmx_saxsiPPcE7start_q, align 4
  %49 = load float, ptr @_ZZ8gmx_saxsiPPcE5end_q, align 4
  %50 = load float, ptr @_ZZ8gmx_saxsiPPcE6energy, align 4
  %51 = load i32, ptr @_ZZ8gmx_saxsiPPcE7ngroups, align 4
  %52 = load ptr, ptr %6, align 8
  %53 = invoke noundef i32 @_Z23do_scattering_intensityPKcS0_S0_S0_S0_fffiPK16gmx_output_env_t(ptr noundef %38, ptr noundef %44, ptr noundef %46, ptr noundef %40, ptr noundef %42, float noundef %48, float noundef %49, float noundef %50, i32 noundef %51, ptr noundef %52)
          to label %54 unwind label %32

54:                                               ; preds = %47
  %55 = load ptr, ptr @stdout, align 8
  invoke void @_Z11please_citeP8_IO_FILEPKc(ptr noundef %55, ptr noundef nonnull @.str.17)
          to label %56 unwind label %32

56:                                               ; preds = %54, %31
  %57 = getelementptr inbounds i8, ptr %7, i64 280
  br label %58

58:                                               ; preds = %_ZN8t_filenmD2Ev.exit, %56
  %59 = phi ptr [ %57, %56 ], [ %60, %_ZN8t_filenmD2Ev.exit ]
  %60 = getelementptr inbounds i8, ptr %59, i64 -56
  %61 = getelementptr inbounds i8, ptr %59, i64 -24
  %62 = load ptr, ptr %61, align 8
  %63 = getelementptr inbounds i8, ptr %59, i64 -16
  %64 = load ptr, ptr %63, align 8
  %.not4.i.i.i.i.i = icmp eq ptr %62, %64
  br i1 %.not4.i.i.i.i.i, label %_ZSt8_DestroyIPNSt7__cxx1112basic_stringIcSt11char_traitsIcESaIcEEES5_EvT_S7_RSaIT0_E.exit.i.i, label %.lr.ph.i.i.i.i.i

.lr.ph.i.i.i.i.i:                                 ; preds = %58, %.lr.ph.i.i.i.i.i
  %.05.i.i.i.i.i = phi ptr [ %65, %.lr.ph.i.i.i.i.i ], [ %62, %58 ]
  call void @_ZNSt7__cxx1112basic_stringIcSt11char_traitsIcESaIcEED1Ev(ptr noundef nonnull align 8 dereferenceable(32) %.05.i.i.i.i.i) #8
  %65 = getelementptr inbounds i8, ptr %.05.i.i.i.i.i, i64 32
  %.not.i.i.i.i.i = icmp eq ptr %65, %64
  br i1 %.not.i.i.i.i.i, label %_ZSt8_DestroyIPNSt7__cxx1112basic_stringIcSt11char_traitsIcESaIcEEES5_EvT_S7_RSaIT0_E.exitthread-pre-split.i.i, label %.lr.ph.i.i.i.i.i, !llvm.loop !5

_ZSt8_DestroyIPNSt7__cxx1112basic_stringIcSt11char_traitsIcESaIcEEES5_EvT_S7_RSaIT0_E.exitthread-pre-split.i.i: ; preds = %.lr.ph.i.i.i.i.i
  %.pr.i.i = load ptr, ptr %61, align 8
  br label %_ZSt8_DestroyIPNSt7__cxx1112basic_stringIcSt11char_traitsIcESaIcEEES5_EvT_S7_RSaIT0_E.exit.i.i

_ZSt8_DestroyIPNSt7__cxx1112basic_stringIcSt11char_traitsIcESaIcEEES5_EvT_S7_RSaIT0_E.exit.i.i: ; preds = %_ZSt8_DestroyIPNSt7__cxx1112basic_stringIcSt11char_traitsIcESaIcEEES5_EvT_S7_RSaIT0_E.exitthread-pre-split.i.i, %58
  %66 = phi ptr [ %.pr.i.i, %_ZSt8_DestroyIPNSt7__cxx1112basic_stringIcSt11char_traitsIcESaIcEEES5_EvT_S7_RSaIT0_E.exitthread-pre-split.i.i ], [ %62, %58 ]
  %.not.i.i.i.i = icmp eq ptr %66, null
  br i1 %.not.i.i.i.i, label %_ZN8t_filenmD2Ev.exit, label %67

67:                                               ; preds = %_ZSt8_DestroyIPNSt7__cxx1112basic_stringIcSt11char_traitsIcESaIcEEES5_EvT_S7_RSaIT0_E.exit.i.i
  call void @_ZdlPv(ptr noundef nonnull %66) #9
  br label %_ZN8t_filenmD2Ev.exit

_ZN8t_filenmD2Ev.exit:                            ; preds = %_ZSt8_DestroyIPNSt7__cxx1112basic_stringIcSt11char_traitsIcESaIcEEES5_EvT_S7_RSaIT0_E.exit.i.i, %67
  %68 = icmp eq ptr %60, %7
  br i1 %68, label %69, label %58

69:                                               ; preds = %_ZN8t_filenmD2Ev.exit
  ret i32 0

70:                                               ; preds = %70, %32
  %71 = phi ptr [ %34, %32 ], [ %72, %70 ]
  %72 = getelementptr inbounds i8, ptr %71, i64 -56
  call void @_ZN8t_filenmD2Ev(ptr noundef nonnull align 8 dereferenceable(56) %72) #8
  %73 = icmp eq ptr %72, %7
  br i1 %73, label %74, label %70

74:                                               ; preds = %70
  resume { ptr, i32 } %33
}